target datalayout = "e-m:e-p270:32:32-p271:32:32-p272:64:64-i64:64-i128:128-f80:128-n8:16:32:64-S128"
target triple = "x86_64-pc-linux-gnu"

%struct.string_list = type { ptr, i64, i64, i8, ptr }
%struct.string_list_item = type { ptr, ptr }

; Function Attrs: inlinehint nounwind uwtable
define internal void @strbuf_addstr(ptr noundef %0, ptr noundef %1) #1 {
  %3 = alloca ptr, align 8
  %4 = alloca ptr, align 8
  store ptr %0, ptr %3, align 8, !tbaa !18
  store ptr %1, ptr %4, align 8, !tbaa !4
  %5 = load ptr, ptr %3, align 8, !tbaa !18
  %6 = load ptr, ptr %4, align 8, !tbaa !4
  %7 = load ptr, ptr %4, align 8, !tbaa !4
  %8 = call i64 @strlen(ptr noundef %7) #13
  call void @strbuf_add(ptr noundef %5, ptr noundef %6, i64 noundef %8)
  ret void
}

; Function Attrs: nounwind uwtable
define dso_local void @strbuf_add_separated_string_list(ptr noundef %0, ptr noundef %1, ptr noundef %2) #0 {
  %4 = alloca ptr, align 8
  %5 = alloca ptr, align 8
  %6 = alloca ptr, align 8
  %7 = alloca ptr, align 8
  %8 = alloca i32, align 4
  store ptr %0, ptr %4, align 8, !tbaa !18
  store ptr %1, ptr %5, align 8, !tbaa !4
  store ptr %2, ptr %6, align 8, !tbaa !34
  call void @llvm.lifetime.start.p0(i64 8, ptr %7) #11
  call void @llvm.lifetime.start.p0(i64 4, ptr %8) #11
  store i32 0, ptr %8, align 4, !tbaa !10
  %9 = load ptr, ptr %6, align 8, !tbaa !34
  %10 = getelementptr inbounds nuw %struct.string_list, ptr %9, i32 0, i32 0
  %11 = load ptr, ptr %10, align 8, !tbaa !36
  store ptr %11, ptr %7, align 8, !tbaa !39
  br label %12

12:                                               ; preds = %38, %3
  %13 = load ptr, ptr %7, align 8, !tbaa !39
  %14 = icmp ne ptr %13, null
  br i1 %14, label %15, label %25

15:                                               ; preds = %12
  %16 = load ptr, ptr %7, align 8, !tbaa !39
  %17 = load ptr, ptr %6, align 8, !tbaa !34
  %18 = getelementptr inbounds nuw %struct.string_list, ptr %17, i32 0, i32 0
  %19 = load ptr, ptr %18, align 8, !tbaa !36
  %20 = load ptr, ptr %6, align 8, !tbaa !34
  %21 = getelementptr inbounds nuw %struct.string_list, ptr %20, i32 0, i32 1
  %22 = load i64, ptr %21, align 8, !tbaa !40
  %23 = getelementptr inbounds nuw %struct.string_list_item, ptr %19, i64 %22
  %24 = icmp ult ptr %16, %23
  br label %25

25:                                               ; preds = %15, %12
  %26 = phi i1 [ false, %12 ], [ %24, %15 ]
  br i1 %26, label %27, label %41

27:                                               ; preds = %25
  %28 = load i32, ptr %8, align 4, !tbaa !10
  %29 = icmp ne i32 %28, 0
  br i1 %29, label %30, label %33

30:                                               ; preds = %27
  %31 = load ptr, ptr %4, align 8, !tbaa !18
  %32 = load ptr, ptr %5, align 8, !tbaa !4
  call void @strbuf_addstr(ptr noundef %31, ptr noundef %32)
  br label %33

33:                                               ; preds = %30, %27
  %34 = load ptr, ptr %4, align 8, !tbaa !18
  %35 = load ptr, ptr %7, align 8, !tbaa !39
  %36 = getelementptr inbounds nuw %struct.string_list_item, ptr %35, i32 0, i32 0
  %37 = load ptr, ptr %36, align 8, !tbaa !41
  call void @strbuf_addstr(ptr noundef %34, ptr noundef %37)
  store i32 1, ptr %8, align 4, !tbaa !10
  br label %38

38:                                               ; preds = %33
  %39 = load ptr, ptr %7, align 8, !tbaa !39
  %40 = getelementptr inbounds nuw %struct.string_list_item, ptr %39, i32 1
  store ptr %40, ptr %7, align 8, !tbaa !39
  br label %12, !llvm.loop !43

41:                                               ; preds = %25
  call void @llvm.lifetime.end.p0(i64 4, ptr %8) #11
  call void @llvm.lifetime.end.p0(i64 8, ptr %7) #11
  ret void
}