; Function Attrs: nounwind uwtable
define dso_local void @strbuf_add_separated_string_list(ptr noundef captures(none) %0, ptr noundef readonly captures(none) %1, ptr noundef readonly captures(none) %2) local_unnamed_addr #3 {
  %4 = load ptr, ptr %2, align 8, !tbaa !25
  %.not12 = icmp eq ptr %4, null
  br i1 %.not12, label %.critedge, label %.lr.ph

.lr.ph:                                           ; preds = %3
  %5 = getelementptr inbounds nuw i8, ptr %2, i64 8
  %6 = load ptr, ptr %2, align 8, !tbaa !25
  %7 = load i64, ptr %5, align 8, !tbaa !29
  %8 = getelementptr inbounds nuw %struct.string_list_item, ptr %6, i64 %7
  %9 = icmp ult ptr %4, %8
  br i1 %9, label %.lr.ph18, label %.critedge

.lr.ph18:                                         ; preds = %.lr.ph, %12
  %.0101317 = phi ptr [ %15, %12 ], [ %4, %.lr.ph ]
  %.not111416 = phi i1 [ false, %12 ], [ true, %.lr.ph ]
  br i1 %.not111416, label %12, label %10

10:                                               ; preds = %.lr.ph18
  %11 = tail call i64 @strlen(ptr noundef nonnull readonly dereferenceable(1) %1) #26
  tail call void @strbuf_add(ptr noundef %0, ptr noundef nonnull readonly %1, i64 noundef %11)
  br label %12

12:                                               ; preds = %10, %.lr.ph18
  %13 = load ptr, ptr %.0101317, align 8, !tbaa !30
  %14 = tail call i64 @strlen(ptr noundef nonnull readonly dereferenceable(1) %13) #26
  tail call void @strbuf_add(ptr noundef %0, ptr noundef nonnull readonly %13, i64 noundef %14)
  %15 = getelementptr inbounds nuw i8, ptr %.0101317, i64 16
  %16 = load ptr, ptr %2, align 8, !tbaa !25
  %17 = load i64, ptr %5, align 8, !tbaa !29
  %18 = getelementptr inbounds nuw %struct.string_list_item, ptr %16, i64 %17
  %19 = icmp ult ptr %15, %18
  br i1 %19, label %.lr.ph18, label %.critedge

.critedge:                                        ; preds = %12, %.lr.ph, %3
  ret void
}